; Function Attrs: mustprogress uwtable
define void @_ZN8facebook5velox13LocalReadFileC2ESt17basic_string_viewIcSt11char_traitsIcEE(ptr noundef nonnull align 8 dereferenceable(64) %this, i64 %path.coerce0, ptr %path.coerce1) unnamed_addr #0 align 2 personality ptr @__gxx_personality_v0 {
entry:
  %agg.tmp.i = alloca %"struct.std::__cxx11::basic_string<char>::__sv_wrapper", align 8
  %ref.tmp = alloca %"class.std::allocator", align 1
  %bytesRead_.i = getelementptr inbounds i8, ptr %this, i64 8
  store i64 0, ptr %bytesRead_.i, align 8
  store ptr getelementptr inbounds ({ [17 x ptr] }, ptr @_ZTVN8facebook5velox13LocalReadFileE, i64 0, i32 0, i64 2), ptr %this, align 8
  %path_ = getelementptr inbounds i8, ptr %this, i64 16
  call void @_ZNSaIcEC1Ev(ptr noundef nonnull align 1 dereferenceable(1) %ref.tmp) #11
  call void @llvm.lifetime.start.p0(i64 16, ptr nonnull %agg.tmp.i)
  %call.i = call { i64, ptr } @_ZNSt7__cxx1112basic_stringIcSt11char_traitsIcESaIcEE17_S_to_string_viewESt17basic_string_viewIcS2_E(i64 %path.coerce0, ptr %path.coerce1) #11
  %0 = extractvalue { i64, ptr } %call.i, 0
  %1 = extractvalue { i64, ptr } %call.i, 1
  call void @_ZNSt7__cxx1112basic_stringIcSt11char_traitsIcESaIcEE12__sv_wrapperC1ESt17basic_string_viewIcS2_E(ptr noundef nonnull align 8 dereferenceable(16) %agg.tmp.i, i64 %0, ptr %1) #11
  %2 = load i64, ptr %agg.tmp.i, align 8
  %3 = getelementptr inbounds i8, ptr %agg.tmp.i, i64 8
  %4 = load ptr, ptr %3, align 8
  invoke void @_ZNSt7__cxx1112basic_stringIcSt11char_traitsIcESaIcEEC2ENS4_12__sv_wrapperERKS3_(ptr noundef nonnull align 8 dereferenceable(32) %path_, i64 %2, ptr %4, ptr noundef nonnull align 1 dereferenceable(1) %ref.tmp)
          to label %invoke.cont unwind label %lpad

invoke.cont:                                      ; preds = %entry
  call void @llvm.lifetime.end.p0(i64 16, ptr nonnull %agg.tmp.i)
  call void @_ZNSaIcED1Ev(ptr noundef nonnull align 1 dereferenceable(1) %ref.tmp) #11
  %call = call noundef ptr @_ZNKSt7__cxx1112basic_stringIcSt11char_traitsIcESaIcEE5c_strEv(ptr noundef nonnull align 8 dereferenceable(32) %path_) #11
  %call5 = invoke i32 (ptr, i32, ...) @open(ptr noundef %call, i32 noundef 0)
          to label %invoke.cont4 unwind label %lpad3

invoke.cont4:                                     ; preds = %invoke.cont
  %fd_ = getelementptr inbounds i8, ptr %this, i64 48
  store i32 %call5, ptr %fd_, align 8
  %cmp = icmp slt i32 %call5, 0
  br i1 %cmp, label %if.then, label %if.end

if.then:                                          ; preds = %invoke.cont4
  call void @llvm.trap()
  unreachable

lpad:                                             ; preds = %entry
  %5 = landingpad { ptr, i32 }
          cleanup
  call void @_ZNSaIcED1Ev(ptr noundef nonnull align 1 dereferenceable(1) %ref.tmp) #11
  br label %ehcleanup

lpad3:                                            ; preds = %invoke.cont
  %6 = landingpad { ptr, i32 }
          cleanup
  call void @_ZNSt7__cxx1112basic_stringIcSt11char_traitsIcESaIcEED1Ev(ptr noundef nonnull align 8 dereferenceable(32) %path_) #11
  br label %ehcleanup

if.end:                                           ; preds = %invoke.cont4
  %call8 = call i64 @lseek(i32 noundef %call5, i64 noundef 0, i32 noundef 2) #11
  %cmp9 = icmp slt i64 %call8, 0
  br i1 %cmp9, label %if.then11, label %if.end12

if.then11:                                        ; preds = %if.end
  call void @llvm.trap()
  unreachable

if.end12:                                         ; preds = %if.end
  %size_ = getelementptr inbounds i8, ptr %this, i64 56
  store i64 %call8, ptr %size_, align 8
  ret void

ehcleanup:                                        ; preds = %lpad3, %lpad
  %.pn = phi { ptr, i32 } [ %6, %lpad3 ], [ %5, %lpad ]
  resume { ptr, i32 } %.pn
}